target datalayout = "e-m:e-p270:32:32-p271:32:32-p272:64:64-i64:64-i128:128-f80:128-n8:16:32:64-S128"
target triple = "x86_64-pc-linux-gnu"

%"class.icu_77::RegexCompile" = type { ptr, ptr, ptr, ptr, i64, i8, i8, i8, i64, i64, i32, i32, %"struct.icu_77::RegexCompile::RegexPatternChar", [100 x i16], i32, i32, i32, i8, %"class.icu_77::UnicodeString", i64, %"class.icu_77::UVector32", i32, i32, i32, i32, %"class.icu_77::UStack", %"class.icu_77::UStack", i32, ptr }
%"struct.icu_77::RegexCompile::RegexPatternChar" = type { i32, i8 }
%"class.icu_77::UnicodeString" = type { %"class.icu_77::Replaceable", %"union.icu_77::UnicodeString::StackBufferOrFields" }
%"class.icu_77::Replaceable" = type { %"class.icu_77::UObject" }
%"class.icu_77::UObject" = type { ptr }
%"union.icu_77::UnicodeString::StackBufferOrFields" = type { %struct.anon.0, [32 x i8] }
%struct.anon.0 = type { i16, i32, i32, ptr }
%"class.icu_77::UVector32" = type { %"class.icu_77::UObject", i32, i32, i32, ptr }
%"class.icu_77::UStack" = type { %"class.icu_77::UVector" }
%"class.icu_77::UVector" = type { %"class.icu_77::UObject", i32, i32, ptr, ptr, ptr }

@_ZTVN6icu_7712RegexCompileE = unnamed_addr constant { [4 x ptr] } { [4 x ptr] [ptr null, ptr @_ZTIN6icu_7712RegexCompileE, ptr @_ZN6icu_7712RegexCompileD1Ev, ptr @_ZN6icu_7712RegexCompileD0Ev] }, align 8

; Function Attrs: mustprogress nounwind uwtable
define void @_ZN6icu_7712RegexCompileD2Ev(ptr noundef nonnull align 8 dereferenceable(512) %0) unnamed_addr #0 align 2 {
  %2 = alloca ptr, align 8
  store ptr %0, ptr %2, align 8, !tbaa !23
  %3 = load ptr, ptr %2, align 8
  store ptr getelementptr inbounds inrange(-16, 16) ({ [4 x ptr] }, ptr @_ZTVN6icu_7712RegexCompileE, i32 0, i32 0, i32 2), ptr %3, align 8, !tbaa !27
  %4 = getelementptr inbounds nuw %"class.icu_77::RegexCompile", ptr %3, i32 0, i32 28
  %5 = load ptr, ptr %4, align 8, !tbaa !62
  %6 = icmp eq ptr %5, null
  br i1 %6, label %11, label %7

7:                                                ; preds = %1
  %8 = load ptr, ptr %5, align 8, !tbaa !27
  %9 = getelementptr inbounds ptr, ptr %8, i64 1
  %10 = load ptr, ptr %9, align 8
  call void %10(ptr noundef nonnull align 8 dereferenceable(64) %5) #13
  br label %11

11:                                               ; preds = %7, %1
  %12 = getelementptr inbounds nuw %"class.icu_77::RegexCompile", ptr %3, i32 0, i32 26
  call void @_ZN6icu_776UStackD1Ev(ptr noundef nonnull align 8 dereferenceable(40) %12) #13
  %13 = getelementptr inbounds nuw %"class.icu_77::RegexCompile", ptr %3, i32 0, i32 25
  call void @_ZN6icu_776UStackD1Ev(ptr noundef nonnull align 8 dereferenceable(40) %13) #13
  %14 = getelementptr inbounds nuw %"class.icu_77::RegexCompile", ptr %3, i32 0, i32 20
  call void @_ZN6icu_779UVector32D1Ev(ptr noundef nonnull align 8 dereferenceable(32) %14) #13
  %15 = getelementptr inbounds nuw %"class.icu_77::RegexCompile", ptr %3, i32 0, i32 18
  call void @_ZN6icu_7713UnicodeStringD1Ev(ptr noundef nonnull align 8 dereferenceable(64) %15) #13
  ret void
}