; Function Attrs: mustprogress nounwind uwtable
define void @_ZN6icu_7712RegexCompileD2Ev(ptr noundef nonnull align 8 dereferenceable(512) initializes((0, 8)) %0) unnamed_addr #0 align 2 {
  store ptr getelementptr inbounds nuw inrange(-16, 16) (i8, ptr @_ZTVN6icu_7712RegexCompileE, i64 16), ptr %0, align 8, !tbaa !15
  %2 = getelementptr inbounds nuw i8, ptr %0, i64 504
  %3 = load ptr, ptr %2, align 8, !tbaa !54
  %4 = icmp eq ptr %3, null
  br i1 %4, label %9, label %5

5:                                                ; preds = %1
  %6 = load ptr, ptr %3, align 8, !tbaa !15
  %7 = getelementptr inbounds nuw i8, ptr %6, i64 8
  %8 = load ptr, ptr %7, align 8
  tail call void %8(ptr noundef nonnull align 8 dereferenceable(64) %3) #15
  br label %9

9:                                                ; preds = %5, %1
  %10 = getelementptr inbounds nuw i8, ptr %0, i64 456
  tail call void @_ZN6icu_776UStackD1Ev(ptr noundef nonnull align 8 dereferenceable(40) %10) #15
  %11 = getelementptr inbounds nuw i8, ptr %0, i64 416
  tail call void @_ZN6icu_776UStackD1Ev(ptr noundef nonnull align 8 dereferenceable(40) %11) #15
  %12 = getelementptr inbounds nuw i8, ptr %0, i64 368
  tail call void @_ZN6icu_779UVector32D1Ev(ptr noundef nonnull align 8 dereferenceable(32) %12) #15
  %13 = getelementptr inbounds nuw i8, ptr %0, i64 296
  tail call void @_ZN6icu_7713UnicodeStringD1Ev(ptr noundef nonnull align 8 dereferenceable(64) %13) #15
  ret void
}